---
triple:          'x86_64-apple-darwin'
binary-path:     '/Users/welcome/Desktop/System Design Practice/Observer Pattern/observer'
relocations:
  - { offsetInCU: 0x2F8C, offset: 0x2F8C, size: 0x8, addend: 0x0, symName: __ZNSt3__124__put_character_sequenceB7v160006IcNS_11char_traitsIcEEEERNS_13basic_ostreamIT_T0_EES7_PKS4_m, symObjAddr: 0x510, symBinAddr: 0x100001340, symSize: 0x1F0 }
  - { offsetInCU: 0x6585, offset: 0x6585, size: 0x8, addend: 0x0, symName: __ZNSt3__119__debug_db_insert_cB7v160006INS_6vectorIP8ObserverNS_9allocatorIS3_EEEEEEvPT_, symObjAddr: 0x2A0, symBinAddr: 0x1000010D0, symSize: 0x10 }
  - { offsetInCU: 0x65B6, offset: 0x65B6, size: 0x8, addend: 0x0, symName: __ZNSt3__1lsB7v160006INS_11char_traitsIcEEEERNS_13basic_ostreamIcT_EES6_PKc, symObjAddr: 0x460, symBinAddr: 0x100001290, symSize: 0x40 }
  - { offsetInCU: 0x65FC, offset: 0x65FC, size: 0x8, addend: 0x0, symName: __ZNSt3__14endlB7v160006IcNS_11char_traitsIcEEEERNS_13basic_ostreamIT_T0_EES7_, symObjAddr: 0x4C0, symBinAddr: 0x1000012F0, symSize: 0x50 }
  - { offsetInCU: 0x663C, offset: 0x663C, size: 0x8, addend: 0x0, symName: __ZNSt3__116__pad_and_outputB7v160006IcNS_11char_traitsIcEEEENS_19ostreambuf_iteratorIT_T0_EES6_PKS4_S8_S8_RNS_8ios_baseES4_, symObjAddr: 0x750, symBinAddr: 0x100001580, symSize: 0x220 }
  - { offsetInCU: 0x670C, offset: 0x670C, size: 0x8, addend: 0x0, symName: __ZNSt3__119__debug_db_insert_cB7v160006INS_12basic_stringIcNS_11char_traitsIcEENS_9allocatorIcEEEEEEvPT_, symObjAddr: 0xBE0, symBinAddr: 0x100001A10, symSize: 0x10 }
  - { offsetInCU: 0x673D, offset: 0x673D, size: 0x8, addend: 0x0, symName: __ZNSt3__112__to_addressB7v160006IKcEEPT_S3_, symObjAddr: 0xC80, symBinAddr: 0x100001AB0, symSize: 0x10 }
  - { offsetInCU: 0x67A5, offset: 0x67A5, size: 0x8, addend: 0x0, symName: __ZNSt3__19use_facetB7v160006INS_5ctypeIcEEEERKT_RKNS_6localeE, symObjAddr: 0xEE0, symBinAddr: 0x100001D10, symSize: 0x30 }
  - { offsetInCU: 0x6C74, offset: 0x6C74, size: 0x8, addend: 0x0, symName: __ZNSt3__118__constexpr_strlenB7v160006EPKc, symObjAddr: 0xF70, symBinAddr: 0x100001DA0, symSize: 0x20 }
  - { offsetInCU: 0x6CA0, offset: 0x6CA0, size: 0x8, addend: 0x0, symName: __ZNSt3__112__to_addressB7v160006IP8ObserverEEPT_S4_, symObjAddr: 0x1220, symBinAddr: 0x100002050, symSize: 0x10 }
  - { offsetInCU: 0x6CD5, offset: 0x6CD5, size: 0x8, addend: 0x0, symName: __ZNSt3__13maxB7v160006ImEERKT_S3_S3_, symObjAddr: 0x1600, symBinAddr: 0x100002430, symSize: 0x30 }
  - { offsetInCU: 0x6D18, offset: 0x6D18, size: 0x8, addend: 0x0, symName: __ZNSt3__13minB7v160006ImEERKT_S3_S3_, symObjAddr: 0x1630, symBinAddr: 0x100002460, symSize: 0x30 }
  - { offsetInCU: 0x6F5C, offset: 0x6F5C, size: 0x8, addend: 0x0, symName: __ZNSt3__13minB7v160006ImNS_6__lessImmEEEERKT_S5_S5_T0_, symObjAddr: 0x16B0, symBinAddr: 0x1000024E0, symSize: 0x50 }
  - { offsetInCU: 0x6FF1, offset: 0x6FF1, size: 0x8, addend: 0x0, symName: __ZNSt3__120__throw_length_errorB7v160006EPKc, symObjAddr: 0x1790, symBinAddr: 0x1000025C0, symSize: 0x70 }
  - { offsetInCU: 0x7019, offset: 0x7019, size: 0x8, addend: 0x0, symName: __ZNSt3__13maxB7v160006ImNS_6__lessImmEEEERKT_S5_S5_T0_, symObjAddr: 0x18C0, symBinAddr: 0x1000026F0, symSize: 0x50 }
  - { offsetInCU: 0x7073, offset: 0x7073, size: 0x8, addend: 0x0, symName: __ZNSt3__119__allocate_at_leastB7v160006INS_9allocatorIP8ObserverEEEENS_19__allocation_resultINS_16allocator_traitsIT_E7pointerEEERS7_m, symObjAddr: 0x1A10, symBinAddr: 0x100002840, symSize: 0x40 }
  - { offsetInCU: 0x70B6, offset: 0x70B6, size: 0x8, addend: 0x0, symName: __ZNSt3__117__libcpp_allocateB7v160006Emm, symObjAddr: 0x1B80, symBinAddr: 0x1000029B0, symSize: 0x20 }
  - { offsetInCU: 0x70F3, offset: 0x70F3, size: 0x8, addend: 0x0, symName: __ZNSt3__121__libcpp_operator_newB7v160006IJmEEEPvDpT_, symObjAddr: 0x1BA0, symBinAddr: 0x1000029D0, symSize: 0x20 }
  - { offsetInCU: 0x712C, offset: 0x712C, size: 0x8, addend: 0x0, symName: __ZNSt3__142__uninitialized_allocator_move_if_noexceptB7v160006INS_9allocatorIP8ObserverEENS_16reverse_iteratorIPS3_EES7_S3_vEET1_RT_T0_SB_S8_, symObjAddr: 0x1CD0, symBinAddr: 0x100002B00, symSize: 0x70 }
  - { offsetInCU: 0x71A8, offset: 0x71A8, size: 0x8, addend: 0x0, symName: __ZNSt3__14swapB7v160006IPP8ObserverEENS_9enable_ifIXaasr21is_move_constructibleIT_EE5valuesr18is_move_assignableIS5_EE5valueEvE4typeERS5_S8_, symObjAddr: 0x1D90, symBinAddr: 0x100002BC0, symSize: 0x40 }
  - { offsetInCU: 0x71F9, offset: 0x71F9, size: 0x8, addend: 0x0, symName: __ZNSt3__125__debug_db_invalidate_allB7v160006INS_6vectorIP8ObserverNS_9allocatorIS3_EEEEEEvPT_, symObjAddr: 0x1E80, symBinAddr: 0x100002CB0, symSize: 0x10 }
  - { offsetInCU: 0x722A, offset: 0x722A, size: 0x8, addend: 0x0, symName: __ZNSt3__14moveB7v160006INS_16reverse_iteratorIPP8ObserverEES5_EET0_T_S7_S6_, symObjAddr: 0x1ED0, symBinAddr: 0x100002D00, symSize: 0x80 }
  - { offsetInCU: 0x7284, offset: 0x7284, size: 0x8, addend: 0x0, symName: __ZNSt3__16__moveB7v160006INS_17_ClassicAlgPolicyENS_16reverse_iteratorIPP8ObserverEES6_S6_EENS_4pairIT0_T2_EES8_T1_S9_, symObjAddr: 0x1F50, symBinAddr: 0x100002D80, symSize: 0x90 }
  - { offsetInCU: 0x72F0, offset: 0x72F0, size: 0x8, addend: 0x0, symName: __ZNSt3__123__dispatch_copy_or_moveB7v160006INS_17_ClassicAlgPolicyENS_11__move_loopIS1_EENS_14__move_trivialENS_16reverse_iteratorIPP8ObserverEES9_S9_EENS_4pairIT2_T4_EESB_T3_SC_, symObjAddr: 0x1FE0, symBinAddr: 0x100002E10, symSize: 0x90 }
  - { offsetInCU: 0x736E, offset: 0x736E, size: 0x8, addend: 0x0, symName: __ZNSt3__121__unwrap_and_dispatchB7v160006INS_10__overloadINS_11__move_loopINS_17_ClassicAlgPolicyEEENS_14__move_trivialEEENS_16reverse_iteratorIPP8ObserverEESB_SB_Li0EEENS_4pairIT0_T2_EESD_T1_SE_, symObjAddr: 0x2070, symBinAddr: 0x100002EA0, symSize: 0x210 }
  - { offsetInCU: 0x73FD, offset: 0x73FD, size: 0x8, addend: 0x0, symName: __ZNSt3__114__unwrap_rangeB7v160006INS_16reverse_iteratorIPP8ObserverEES5_EENS_4pairIT0_S7_EET_S9_, symObjAddr: 0x2280, symBinAddr: 0x1000030B0, symSize: 0x90 }
  - { offsetInCU: 0x7578, offset: 0x7578, size: 0x8, addend: 0x0, symName: __ZNSt3__113__unwrap_iterB7v160006INS_16reverse_iteratorIPP8ObserverEENS_18__unwrap_iter_implIS5_Lb0EEELi0EEEDTclsrT0_8__unwrapclsr3stdE7declvalIT_EEEES9_, symObjAddr: 0x23B0, symBinAddr: 0x1000031E0, symSize: 0x40 }
  - { offsetInCU: 0x75BC, offset: 0x75BC, size: 0x8, addend: 0x0, symName: __ZNSt3__19make_pairB7v160006INS_16reverse_iteratorIPP8ObserverEES5_EENS_4pairINS_18__unwrap_ref_decayIT_E4typeENS7_IT0_E4typeEEEOS8_OSB_, symObjAddr: 0x23F0, symBinAddr: 0x100003220, symSize: 0x30 }
  - { offsetInCU: 0x760B, offset: 0x760B, size: 0x8, addend: 0x0, symName: __ZNSt3__114__rewrap_rangeB7v160006INS_16reverse_iteratorIPP8ObserverEES5_EET_S6_T0_, symObjAddr: 0x2420, symBinAddr: 0x100003250, symSize: 0x60 }
  - { offsetInCU: 0x7657, offset: 0x7657, size: 0x8, addend: 0x0, symName: __ZNSt3__113__rewrap_iterB7v160006INS_16reverse_iteratorIPP8ObserverEES5_NS_18__unwrap_iter_implIS5_Lb0EEEEET_S8_T0_, symObjAddr: 0x2480, symBinAddr: 0x1000032B0, symSize: 0x70 }
  - { offsetInCU: 0x76AC, offset: 0x76AC, size: 0x8, addend: 0x0, symName: __ZNSt3__1neB7v160006IPP8ObserverS3_EEbRKNS_16reverse_iteratorIT_EERKNS4_IT0_EE, symObjAddr: 0x24F0, symBinAddr: 0x100003320, symSize: 0x40 }
  - { offsetInCU: 0x77AA, offset: 0x77AA, size: 0x8, addend: 0x0, symName: __ZNSt3__119__libcpp_deallocateB7v160006EPvmm, symObjAddr: 0x28C0, symBinAddr: 0x1000036F0, symSize: 0x30 }
  - { offsetInCU: 0x77F2, offset: 0x77F2, size: 0x8, addend: 0x0, symName: __ZNSt3__127__do_deallocate_handle_sizeB7v160006IJEEEvPvmDpT_, symObjAddr: 0x28F0, symBinAddr: 0x100003720, symSize: 0x20 }
  - { offsetInCU: 0x7830, offset: 0x7830, size: 0x8, addend: 0x0, symName: __ZNSt3__124__libcpp_operator_deleteB7v160006IJPvEEEvDpT_, symObjAddr: 0x2910, symBinAddr: 0x100003740, symSize: 0x20 }
  - { offsetInCU: 0x7865, offset: 0x7865, size: 0x8, addend: 0x0, symName: __ZNSt3__1neB7v160006IPP8ObserverEEbRKNS_11__wrap_iterIT_EES8_, symObjAddr: 0x2A70, symBinAddr: 0x1000038A0, symSize: 0x30 }
  - { offsetInCU: 0x78A8, offset: 0x78A8, size: 0x8, addend: 0x0, symName: __ZNSt3__1eqB7v160006IPP8ObserverEEbRKNS_11__wrap_iterIT_EES8_, symObjAddr: 0x2B60, symBinAddr: 0x100003990, symSize: 0x40 }
  - { offsetInCU: 0x78EB, offset: 0x78EB, size: 0x8, addend: 0x0, symName: __ZNSt3__118__debug_db_erase_cB7v160006INS_6vectorIP8ObserverNS_9allocatorIS3_EEEEEEvPT_, symObjAddr: 0x2D20, symBinAddr: 0x100003B50, symSize: 0x10 }
  - { offsetInCU: 0x7BB1, offset: 0x7BB1, size: 0x8, addend: 0x0, symName: __ZSt28__throw_bad_array_new_lengthB7v160006v, symObjAddr: 0x1B40, symBinAddr: 0x100002970, symSize: 0x40 }
  - { offsetInCU: 0x81AF, offset: 0x81AF, size: 0x8, addend: 0x0, symName: __ZNSt3__16vectorIP8ObserverNS_9allocatorIS2_EEE26__swap_out_circular_bufferERNS_14__split_bufferIS2_RS4_EE, symObjAddr: 0x1400, symBinAddr: 0x100002230, symSize: 0x130 }
  - { offsetInCU: 0xA398, offset: 0xA398, size: 0x8, addend: 0x0, symName: _main, symObjAddr: 0x0, symBinAddr: 0x100000E30, symSize: 0xE0 }
  - { offsetInCU: 0xA495, offset: 0xA495, size: 0x8, addend: 0x0, symName: __ZN14WeatherStationC1Ev, symObjAddr: 0xE0, symBinAddr: 0x100000F10, symSize: 0x20 }
  - { offsetInCU: 0xA50F, offset: 0xA50F, size: 0x8, addend: 0x0, symName: __ZN7DisplayC1Ev, symObjAddr: 0x100, symBinAddr: 0x100000F30, symSize: 0x20 }
  - { offsetInCU: 0xA53A, offset: 0xA53A, size: 0x8, addend: 0x0, symName: __ZN14WeatherStation16registerObserverEP8Observer, symObjAddr: 0x120, symBinAddr: 0x100000F50, symSize: 0x30 }
  - { offsetInCU: 0xA56D, offset: 0xA56D, size: 0x8, addend: 0x0, symName: __ZN14WeatherStation15setMeasurementsEfff, symObjAddr: 0x150, symBinAddr: 0x100000F80, symSize: 0x50 }
  - { offsetInCU: 0xA5BC, offset: 0xA5BC, size: 0x8, addend: 0x0, symName: __ZN14WeatherStationD1Ev, symObjAddr: 0x1A0, symBinAddr: 0x100000FD0, symSize: 0x20 }
  - { offsetInCU: 0xA5E7, offset: 0xA5E7, size: 0x8, addend: 0x0, symName: __ZN14WeatherStationC2Ev, symObjAddr: 0x1C0, symBinAddr: 0x100000FF0, symSize: 0x20 }
  - { offsetInCU: 0xA612, offset: 0xA612, size: 0x8, addend: 0x0, symName: __ZNSt3__16vectorIP8ObserverNS_9allocatorIS2_EEEC1B7v160006Ev, symObjAddr: 0x1E0, symBinAddr: 0x100001010, symSize: 0x20 }
  - { offsetInCU: 0xA63B, offset: 0xA63B, size: 0x8, addend: 0x0, symName: __ZNSt3__16vectorIP8ObserverNS_9allocatorIS2_EEEC2B7v160006Ev, symObjAddr: 0x200, symBinAddr: 0x100001030, symSize: 0x60 }
  - { offsetInCU: 0xA66E, offset: 0xA66E, size: 0x8, addend: 0x0, symName: __ZNSt3__117__compressed_pairIPP8ObserverNS_9allocatorIS2_EEEC1B7v160006IDnNS_18__default_init_tagEEEOT_OT0_, symObjAddr: 0x260, symBinAddr: 0x100001090, symSize: 0x30 }
  - { offsetInCU: 0xA6C5, offset: 0xA6C5, size: 0x8, addend: 0x0, symName: __ZNSt3__117__compressed_pairIPP8ObserverNS_9allocatorIS2_EEEC2B7v160006IDnNS_18__default_init_tagEEEOT_OT0_, symObjAddr: 0x2B0, symBinAddr: 0x1000010E0, symSize: 0x40 }
  - { offsetInCU: 0xA71C, offset: 0xA71C, size: 0x8, addend: 0x0, symName: __ZNSt3__122__compressed_pair_elemIPP8ObserverLi0ELb0EEC2B7v160006IDnvEEOT_, symObjAddr: 0x2F0, symBinAddr: 0x100001120, symSize: 0x20 }
  - { offsetInCU: 0xA75D, offset: 0xA75D, size: 0x8, addend: 0x0, symName: __ZNSt3__122__compressed_pair_elemINS_9allocatorIP8ObserverEELi1ELb1EEC2B7v160006ENS_18__default_init_tagE, symObjAddr: 0x310, symBinAddr: 0x100001140, symSize: 0x20 }
  - { offsetInCU: 0xA791, offset: 0xA791, size: 0x8, addend: 0x0, symName: __ZNSt3__19allocatorIP8ObserverEC2B7v160006Ev, symObjAddr: 0x330, symBinAddr: 0x100001160, symSize: 0x20 }
  - { offsetInCU: 0xA7BA, offset: 0xA7BA, size: 0x8, addend: 0x0, symName: __ZNSt3__116__non_trivial_ifILb1ENS_9allocatorIP8ObserverEEEC2B7v160006Ev, symObjAddr: 0x350, symBinAddr: 0x100001180, symSize: 0x10 }
  - { offsetInCU: 0xA7E3, offset: 0xA7E3, size: 0x8, addend: 0x0, symName: __ZN7DisplayC2Ev, symObjAddr: 0x360, symBinAddr: 0x100001190, symSize: 0x40 }
  - { offsetInCU: 0xA80E, offset: 0xA80E, size: 0x8, addend: 0x0, symName: __ZN8ObserverC2Ev, symObjAddr: 0x3A0, symBinAddr: 0x1000011D0, symSize: 0x20 }
  - { offsetInCU: 0xA839, offset: 0xA839, size: 0x8, addend: 0x0, symName: __ZN7Display6updateEfff, symObjAddr: 0x3C0, symBinAddr: 0x1000011F0, symSize: 0xA0 }
  - { offsetInCU: 0xA888, offset: 0xA888, size: 0x8, addend: 0x0, symName: __ZNSt3__113basic_ostreamIcNS_11char_traitsIcEEElsB7v160006EPFRS3_S4_E, symObjAddr: 0x4A0, symBinAddr: 0x1000012D0, symSize: 0x20 }
  - { offsetInCU: 0xA8BB, offset: 0xA8BB, size: 0x8, addend: 0x0, symName: __ZNSt3__111char_traitsIcE6lengthEPKc, symObjAddr: 0x700, symBinAddr: 0x100001530, symSize: 0x30 }
  - { offsetInCU: 0xA8FC, offset: 0xA8FC, size: 0x8, addend: 0x0, symName: __ZNKSt3__113basic_ostreamIcNS_11char_traitsIcEEE6sentrycvbB7v160006Ev, symObjAddr: 0x730, symBinAddr: 0x100001560, symSize: 0x20 }
  - { offsetInCU: 0xA921, offset: 0xA921, size: 0x8, addend: 0x0, symName: __ZNSt3__119ostreambuf_iteratorIcNS_11char_traitsIcEEEC1B7v160006ERNS_13basic_ostreamIcS2_EE, symObjAddr: 0x970, symBinAddr: 0x1000017A0, symSize: 0x30 }
  - { offsetInCU: 0xA957, offset: 0xA957, size: 0x8, addend: 0x0, symName: __ZNKSt3__18ios_base5flagsB7v160006Ev, symObjAddr: 0x9A0, symBinAddr: 0x1000017D0, symSize: 0x20 }
  - { offsetInCU: 0xA97D, offset: 0xA97D, size: 0x8, addend: 0x0, symName: __ZNKSt3__19basic_iosIcNS_11char_traitsIcEEE4fillB7v160006Ev, symObjAddr: 0x9C0, symBinAddr: 0x1000017F0, symSize: 0x70 }
  - { offsetInCU: 0xA9A4, offset: 0xA9A4, size: 0x8, addend: 0x0, symName: __ZNKSt3__119ostreambuf_iteratorIcNS_11char_traitsIcEEE6failedB7v160006Ev, symObjAddr: 0xA30, symBinAddr: 0x100001860, symSize: 0x20 }
  - { offsetInCU: 0xA9C9, offset: 0xA9C9, size: 0x8, addend: 0x0, symName: __ZNSt3__19basic_iosIcNS_11char_traitsIcEEE8setstateB7v160006Ej, symObjAddr: 0xA50, symBinAddr: 0x100001880, symSize: 0x30 }
  - { offsetInCU: 0xA9FC, offset: 0xA9FC, size: 0x8, addend: 0x0, symName: __ZNKSt3__18ios_base5widthB7v160006Ev, symObjAddr: 0xA80, symBinAddr: 0x1000018B0, symSize: 0x20 }
  - { offsetInCU: 0xAA23, offset: 0xAA23, size: 0x8, addend: 0x0, symName: __ZNSt3__115basic_streambufIcNS_11char_traitsIcEEE5sputnB7v160006EPKcl, symObjAddr: 0xAA0, symBinAddr: 0x1000018D0, symSize: 0x30 }
  - { offsetInCU: 0xAA64, offset: 0xAA64, size: 0x8, addend: 0x0, symName: __ZNSt3__112basic_stringIcNS_11char_traitsIcEENS_9allocatorIcEEEC1B7v160006Emc, symObjAddr: 0xAD0, symBinAddr: 0x100001900, symSize: 0x30 }
  - { offsetInCU: 0xAAAB, offset: 0xAAAB, size: 0x8, addend: 0x0, symName: __ZNKSt3__112basic_stringIcNS_11char_traitsIcEENS_9allocatorIcEEE4dataB7v160006Ev, symObjAddr: 0xB00, symBinAddr: 0x100001930, symSize: 0x30 }
  - { offsetInCU: 0xAACF, offset: 0xAACF, size: 0x8, addend: 0x0, symName: __ZNSt3__18ios_base5widthB7v160006El, symObjAddr: 0xB30, symBinAddr: 0x100001960, symSize: 0x30 }
  - { offsetInCU: 0xAB14, offset: 0xAB14, size: 0x8, addend: 0x0, symName: __ZNSt3__112basic_stringIcNS_11char_traitsIcEENS_9allocatorIcEEEC2B7v160006Emc, symObjAddr: 0xB60, symBinAddr: 0x100001990, symSize: 0x50 }
  - { offsetInCU: 0xAB5B, offset: 0xAB5B, size: 0x8, addend: 0x0, symName: __ZNSt3__117__compressed_pairINS_12basic_stringIcNS_11char_traitsIcEENS_9allocatorIcEEE5__repES5_EC1B7v160006INS_18__default_init_tagESA_EEOT_OT0_, symObjAddr: 0xBB0, symBinAddr: 0x1000019E0, symSize: 0x30 }
  - { offsetInCU: 0xABB2, offset: 0xABB2, size: 0x8, addend: 0x0, symName: __ZNSt3__117__compressed_pairINS_12basic_stringIcNS_11char_traitsIcEENS_9allocatorIcEEE5__repES5_EC2B7v160006INS_18__default_init_tagESA_EEOT_OT0_, symObjAddr: 0xBF0, symBinAddr: 0x100001A20, symSize: 0x30 }
  - { offsetInCU: 0xAC09, offset: 0xAC09, size: 0x8, addend: 0x0, symName: __ZNSt3__122__compressed_pair_elemINS_12basic_stringIcNS_11char_traitsIcEENS_9allocatorIcEEE5__repELi0ELb0EEC2B7v160006ENS_18__default_init_tagE, symObjAddr: 0xC20, symBinAddr: 0x100001A50, symSize: 0x10 }
  - { offsetInCU: 0xAC3D, offset: 0xAC3D, size: 0x8, addend: 0x0, symName: __ZNSt3__122__compressed_pair_elemINS_9allocatorIcEELi1ELb1EEC2B7v160006ENS_18__default_init_tagE, symObjAddr: 0xC30, symBinAddr: 0x100001A60, symSize: 0x20 }
  - { offsetInCU: 0xAC71, offset: 0xAC71, size: 0x8, addend: 0x0, symName: __ZNSt3__19allocatorIcEC2B7v160006Ev, symObjAddr: 0xC50, symBinAddr: 0x100001A80, symSize: 0x20 }
  - { offsetInCU: 0xAC9A, offset: 0xAC9A, size: 0x8, addend: 0x0, symName: __ZNSt3__116__non_trivial_ifILb1ENS_9allocatorIcEEEC2B7v160006Ev, symObjAddr: 0xC70, symBinAddr: 0x100001AA0, symSize: 0x10 }
  - { offsetInCU: 0xACC3, offset: 0xACC3, size: 0x8, addend: 0x0, symName: __ZNKSt3__112basic_stringIcNS_11char_traitsIcEENS_9allocatorIcEEE13__get_pointerB7v160006Ev, symObjAddr: 0xC90, symBinAddr: 0x100001AC0, symSize: 0x50 }
  - { offsetInCU: 0xACE8, offset: 0xACE8, size: 0x8, addend: 0x0, symName: __ZNKSt3__112basic_stringIcNS_11char_traitsIcEENS_9allocatorIcEEE9__is_longB7v160006Ev, symObjAddr: 0xCE0, symBinAddr: 0x100001B10, symSize: 0x30 }
  - { offsetInCU: 0xAD0D, offset: 0xAD0D, size: 0x8, addend: 0x0, symName: __ZNKSt3__112basic_stringIcNS_11char_traitsIcEENS_9allocatorIcEEE18__get_long_pointerB7v160006Ev, symObjAddr: 0xD10, symBinAddr: 0x100001B40, symSize: 0x20 }
  - { offsetInCU: 0xAD32, offset: 0xAD32, size: 0x8, addend: 0x0, symName: __ZNKSt3__112basic_stringIcNS_11char_traitsIcEENS_9allocatorIcEEE19__get_short_pointerB7v160006Ev, symObjAddr: 0xD30, symBinAddr: 0x100001B60, symSize: 0x30 }
  - { offsetInCU: 0xAD57, offset: 0xAD57, size: 0x8, addend: 0x0, symName: __ZNKSt3__117__compressed_pairINS_12basic_stringIcNS_11char_traitsIcEENS_9allocatorIcEEE5__repES5_E5firstB7v160006Ev, symObjAddr: 0xD60, symBinAddr: 0x100001B90, symSize: 0x20 }
  - { offsetInCU: 0xAD7C, offset: 0xAD7C, size: 0x8, addend: 0x0, symName: __ZNKSt3__122__compressed_pair_elemINS_12basic_stringIcNS_11char_traitsIcEENS_9allocatorIcEEE5__repELi0ELb0EE5__getB7v160006Ev, symObjAddr: 0xD80, symBinAddr: 0x100001BB0, symSize: 0x10 }
  - { offsetInCU: 0xADA1, offset: 0xADA1, size: 0x8, addend: 0x0, symName: __ZNSt3__114pointer_traitsIPKcE10pointer_toB7v160006ERS1_, symObjAddr: 0xD90, symBinAddr: 0x100001BC0, symSize: 0x10 }
  - { offsetInCU: 0xADC4, offset: 0xADC4, size: 0x8, addend: 0x0, symName: __ZNSt3__119ostreambuf_iteratorIcNS_11char_traitsIcEEEC2B7v160006ERNS_13basic_ostreamIcS2_EE, symObjAddr: 0xDA0, symBinAddr: 0x100001BD0, symSize: 0x50 }
  - { offsetInCU: 0xADFA, offset: 0xADFA, size: 0x8, addend: 0x0, symName: __ZNKSt3__19basic_iosIcNS_11char_traitsIcEEE5rdbufB7v160006Ev, symObjAddr: 0xDF0, symBinAddr: 0x100001C20, symSize: 0x20 }
  - { offsetInCU: 0xAE21, offset: 0xAE21, size: 0x8, addend: 0x0, symName: __ZNKSt3__18ios_base5rdbufB7v160006Ev, symObjAddr: 0xE10, symBinAddr: 0x100001C40, symSize: 0x20 }
  - { offsetInCU: 0xAE46, offset: 0xAE46, size: 0x8, addend: 0x0, symName: __ZNSt3__111char_traitsIcE11eq_int_typeEii, symObjAddr: 0xE30, symBinAddr: 0x100001C60, symSize: 0x20 }
  - { offsetInCU: 0xAE77, offset: 0xAE77, size: 0x8, addend: 0x0, symName: __ZNSt3__111char_traitsIcE3eofEv, symObjAddr: 0xE50, symBinAddr: 0x100001C80, symSize: 0x10 }
  - { offsetInCU: 0xAE8A, offset: 0xAE8A, size: 0x8, addend: 0x0, symName: __ZNKSt3__19basic_iosIcNS_11char_traitsIcEEE5widenB7v160006Ec, symObjAddr: 0xE60, symBinAddr: 0x100001C90, symSize: 0x80 }
  - { offsetInCU: 0xAEF7, offset: 0xAEF7, size: 0x8, addend: 0x0, symName: __ZNKSt3__15ctypeIcE5widenB7v160006Ec, symObjAddr: 0xF10, symBinAddr: 0x100001D40, symSize: 0x30 }
  - { offsetInCU: 0xAF2A, offset: 0xAF2A, size: 0x8, addend: 0x0, symName: __ZNSt3__18ios_base8setstateB7v160006Ej, symObjAddr: 0xF40, symBinAddr: 0x100001D70, symSize: 0x30 }
  - { offsetInCU: 0xAF5F, offset: 0xAF5F, size: 0x8, addend: 0x0, symName: __ZNSt3__16vectorIP8ObserverNS_9allocatorIS2_EEE9push_backB7v160006ERKS2_, symObjAddr: 0xF90, symBinAddr: 0x100001DC0, symSize: 0x60 }
  - { offsetInCU: 0xAF95, offset: 0xAF95, size: 0x8, addend: 0x0, symName: __ZNSt3__16vectorIP8ObserverNS_9allocatorIS2_EEE9__end_capB7v160006Ev, symObjAddr: 0xFF0, symBinAddr: 0x100001E20, symSize: 0x20 }
  - { offsetInCU: 0xAFBA, offset: 0xAFBA, size: 0x8, addend: 0x0, symName: __ZNSt3__16vectorIP8ObserverNS_9allocatorIS2_EEE22__construct_one_at_endB7v160006IJRKS2_EEEvDpOT_, symObjAddr: 0x1010, symBinAddr: 0x100001E40, symSize: 0x90 }
  - { offsetInCU: 0xB007, offset: 0xB007, size: 0x8, addend: 0x0, symName: __ZNSt3__16vectorIP8ObserverNS_9allocatorIS2_EEE21__push_back_slow_pathIRKS2_EEvOT_, symObjAddr: 0x10A0, symBinAddr: 0x100001ED0, symSize: 0xD0 }
  - { offsetInCU: 0xB064, offset: 0xB064, size: 0x8, addend: 0x0, symName: __ZNSt3__117__compressed_pairIPP8ObserverNS_9allocatorIS2_EEE5firstB7v160006Ev, symObjAddr: 0x1170, symBinAddr: 0x100001FA0, symSize: 0x20 }
  - { offsetInCU: 0xB089, offset: 0xB089, size: 0x8, addend: 0x0, symName: __ZNSt3__122__compressed_pair_elemIPP8ObserverLi0ELb0EE5__getB7v160006Ev, symObjAddr: 0x1190, symBinAddr: 0x100001FC0, symSize: 0x10 }
  - { offsetInCU: 0xB0C7, offset: 0xB0C7, size: 0x8, addend: 0x0, symName: __ZNSt3__16vectorIP8ObserverNS_9allocatorIS2_EEE21_ConstructTransactionC1B7v160006ERS5_m, symObjAddr: 0x11A0, symBinAddr: 0x100001FD0, symSize: 0x30 }
  - { offsetInCU: 0xB10E, offset: 0xB10E, size: 0x8, addend: 0x0, symName: __ZNSt3__116allocator_traitsINS_9allocatorIP8ObserverEEE9constructB7v160006IS3_JRKS3_EvEEvRS4_PT_DpOT0_, symObjAddr: 0x11D0, symBinAddr: 0x100002000, symSize: 0x30 }
  - { offsetInCU: 0xB165, offset: 0xB165, size: 0x8, addend: 0x0, symName: __ZNSt3__16vectorIP8ObserverNS_9allocatorIS2_EEE7__allocB7v160006Ev, symObjAddr: 0x1200, symBinAddr: 0x100002030, symSize: 0x20 }
  - { offsetInCU: 0xB18A, offset: 0xB18A, size: 0x8, addend: 0x0, symName: __ZNSt3__16vectorIP8ObserverNS_9allocatorIS2_EEE21_ConstructTransactionD1B7v160006Ev, symObjAddr: 0x1230, symBinAddr: 0x100002060, symSize: 0x20 }
  - { offsetInCU: 0xB1B3, offset: 0xB1B3, size: 0x8, addend: 0x0, symName: __ZNSt3__16vectorIP8ObserverNS_9allocatorIS2_EEE21_ConstructTransactionC2B7v160006ERS5_m, symObjAddr: 0x1250, symBinAddr: 0x100002080, symSize: 0x40 }
  - { offsetInCU: 0xB1FA, offset: 0xB1FA, size: 0x8, addend: 0x0, symName: __ZNSt3__19allocatorIP8ObserverE9constructB7v160006IS2_JRKS2_EEEvPT_DpOT0_, symObjAddr: 0x1290, symBinAddr: 0x1000020C0, symSize: 0x20 }
  - { offsetInCU: 0xB24F, offset: 0xB24F, size: 0x8, addend: 0x0, symName: __ZNSt3__117__compressed_pairIPP8ObserverNS_9allocatorIS2_EEE6secondB7v160006Ev, symObjAddr: 0x12B0, symBinAddr: 0x1000020E0, symSize: 0x20 }
  - { offsetInCU: 0xB274, offset: 0xB274, size: 0x8, addend: 0x0, symName: __ZNSt3__122__compressed_pair_elemINS_9allocatorIP8ObserverEELi1ELb1EE5__getB7v160006Ev, symObjAddr: 0x12D0, symBinAddr: 0x100002100, symSize: 0x10 }
  - { offsetInCU: 0xB299, offset: 0xB299, size: 0x8, addend: 0x0, symName: __ZNSt3__16vectorIP8ObserverNS_9allocatorIS2_EEE21_ConstructTransactionD2B7v160006Ev, symObjAddr: 0x12E0, symBinAddr: 0x100002110, symSize: 0x20 }
  - { offsetInCU: 0xB2C1, offset: 0xB2C1, size: 0x8, addend: 0x0, symName: __ZNKSt3__16vectorIP8ObserverNS_9allocatorIS2_EEE11__recommendB7v160006Em, symObjAddr: 0x1300, symBinAddr: 0x100002130, symSize: 0xA0 }
  - { offsetInCU: 0xB315, offset: 0xB315, size: 0x8, addend: 0x0, symName: __ZNKSt3__16vectorIP8ObserverNS_9allocatorIS2_EEE4sizeB7v160006Ev, symObjAddr: 0x13A0, symBinAddr: 0x1000021D0, symSize: 0x20 }
  - { offsetInCU: 0xB33A, offset: 0xB33A, size: 0x8, addend: 0x0, symName: __ZNSt3__114__split_bufferIP8ObserverRNS_9allocatorIS2_EEEC1EmmS5_, symObjAddr: 0x13C0, symBinAddr: 0x1000021F0, symSize: 0x40 }
  - { offsetInCU: 0xB38F, offset: 0xB38F, size: 0x8, addend: 0x0, symName: __ZNSt3__114__split_bufferIP8ObserverRNS_9allocatorIS2_EEED1Ev, symObjAddr: 0x1530, symBinAddr: 0x100002360, symSize: 0x20 }
  - { offsetInCU: 0xB3B9, offset: 0xB3B9, size: 0x8, addend: 0x0, symName: __ZNKSt3__16vectorIP8ObserverNS_9allocatorIS2_EEE8max_sizeEv, symObjAddr: 0x1550, symBinAddr: 0x100002380, symSize: 0x60 }
  - { offsetInCU: 0xB3E0, offset: 0xB3E0, size: 0x8, addend: 0x0, symName: __ZNKSt3__16vectorIP8ObserverNS_9allocatorIS2_EEE20__throw_length_errorB7v160006Ev, symObjAddr: 0x15B0, symBinAddr: 0x1000023E0, symSize: 0x20 }
  - { offsetInCU: 0xB405, offset: 0xB405, size: 0x8, addend: 0x0, symName: __ZNKSt3__16vectorIP8ObserverNS_9allocatorIS2_EEE8capacityB7v160006Ev, symObjAddr: 0x15D0, symBinAddr: 0x100002400, symSize: 0x30 }
  - { offsetInCU: 0xB434, offset: 0xB434, size: 0x8, addend: 0x0, symName: __ZNSt3__116allocator_traitsINS_9allocatorIP8ObserverEEE8max_sizeB7v160006IS4_vEEmRKS4_, symObjAddr: 0x1660, symBinAddr: 0x100002490, symSize: 0x20 }
  - { offsetInCU: 0xB462, offset: 0xB462, size: 0x8, addend: 0x0, symName: __ZNKSt3__16vectorIP8ObserverNS_9allocatorIS2_EEE7__allocB7v160006Ev, symObjAddr: 0x1680, symBinAddr: 0x1000024B0, symSize: 0x20 }
  - { offsetInCU: 0xB487, offset: 0xB487, size: 0x8, addend: 0x0, symName: __ZNSt3__114numeric_limitsIlE3maxB7v160006Ev, symObjAddr: 0x16A0, symBinAddr: 0x1000024D0, symSize: 0x10 }
  - { offsetInCU: 0xB4AF, offset: 0xB4AF, size: 0x8, addend: 0x0, symName: __ZNKSt3__16__lessImmEclB7v160006ERKmS3_, symObjAddr: 0x1700, symBinAddr: 0x100002530, symSize: 0x30 }
  - { offsetInCU: 0xB4F0, offset: 0xB4F0, size: 0x8, addend: 0x0, symName: __ZNKSt3__19allocatorIP8ObserverE8max_sizeB7v160006Ev, symObjAddr: 0x1730, symBinAddr: 0x100002560, symSize: 0x20 }
  - { offsetInCU: 0xB515, offset: 0xB515, size: 0x8, addend: 0x0, symName: __ZNKSt3__117__compressed_pairIPP8ObserverNS_9allocatorIS2_EEE6secondB7v160006Ev, symObjAddr: 0x1750, symBinAddr: 0x100002580, symSize: 0x20 }
  - { offsetInCU: 0xB53A, offset: 0xB53A, size: 0x8, addend: 0x0, symName: __ZNKSt3__122__compressed_pair_elemINS_9allocatorIP8ObserverEELi1ELb1EE5__getB7v160006Ev, symObjAddr: 0x1770, symBinAddr: 0x1000025A0, symSize: 0x10 }
  - { offsetInCU: 0xB55F, offset: 0xB55F, size: 0x8, addend: 0x0, symName: __ZNSt3__123__libcpp_numeric_limitsIlLb1EE3maxB7v160006Ev, symObjAddr: 0x1780, symBinAddr: 0x1000025B0, symSize: 0x10 }
  - { offsetInCU: 0xB573, offset: 0xB573, size: 0x8, addend: 0x0, symName: __ZNSt12length_errorC1B7v160006EPKc, symObjAddr: 0x1800, symBinAddr: 0x100002630, symSize: 0x30 }
  - { offsetInCU: 0xB5AA, offset: 0xB5AA, size: 0x8, addend: 0x0, symName: __ZNSt12length_errorC2B7v160006EPKc, symObjAddr: 0x1830, symBinAddr: 0x100002660, symSize: 0x40 }
  - { offsetInCU: 0xB5E1, offset: 0xB5E1, size: 0x8, addend: 0x0, symName: __ZNKSt3__16vectorIP8ObserverNS_9allocatorIS2_EEE9__end_capB7v160006Ev, symObjAddr: 0x1870, symBinAddr: 0x1000026A0, symSize: 0x20 }
  - { offsetInCU: 0xB606, offset: 0xB606, size: 0x8, addend: 0x0, symName: __ZNKSt3__117__compressed_pairIPP8ObserverNS_9allocatorIS2_EEE5firstB7v160006Ev, symObjAddr: 0x1890, symBinAddr: 0x1000026C0, symSize: 0x20 }
  - { offsetInCU: 0xB62B, offset: 0xB62B, size: 0x8, addend: 0x0, symName: __ZNKSt3__122__compressed_pair_elemIPP8ObserverLi0ELb0EE5__getB7v160006Ev, symObjAddr: 0x18B0, symBinAddr: 0x1000026E0, symSize: 0x10 }
  - { offsetInCU: 0xB650, offset: 0xB650, size: 0x8, addend: 0x0, symName: __ZNSt3__114__split_bufferIP8ObserverRNS_9allocatorIS2_EEEC2EmmS5_, symObjAddr: 0x1910, symBinAddr: 0x100002740, symSize: 0xD0 }
  - { offsetInCU: 0xB6C3, offset: 0xB6C3, size: 0x8, addend: 0x0, symName: __ZNSt3__117__compressed_pairIPP8ObserverRNS_9allocatorIS2_EEEC1B7v160006IDnS6_EEOT_OT0_, symObjAddr: 0x19E0, symBinAddr: 0x100002810, symSize: 0x30 }
  - { offsetInCU: 0xB71A, offset: 0xB71A, size: 0x8, addend: 0x0, symName: __ZNSt3__114__split_bufferIP8ObserverRNS_9allocatorIS2_EEE7__allocB7v160006Ev, symObjAddr: 0x1A50, symBinAddr: 0x100002880, symSize: 0x20 }
  - { offsetInCU: 0xB73F, offset: 0xB73F, size: 0x8, addend: 0x0, symName: __ZNSt3__114__split_bufferIP8ObserverRNS_9allocatorIS2_EEE9__end_capB7v160006Ev, symObjAddr: 0x1A70, symBinAddr: 0x1000028A0, symSize: 0x20 }
  - { offsetInCU: 0xB764, offset: 0xB764, size: 0x8, addend: 0x0, symName: __ZNSt3__117__compressed_pairIPP8ObserverRNS_9allocatorIS2_EEEC2B7v160006IDnS6_EEOT_OT0_, symObjAddr: 0x1A90, symBinAddr: 0x1000028C0, symSize: 0x40 }
  - { offsetInCU: 0xB7BB, offset: 0xB7BB, size: 0x8, addend: 0x0, symName: __ZNSt3__122__compressed_pair_elemIRNS_9allocatorIP8ObserverEELi1ELb0EEC2B7v160006IS5_vEEOT_, symObjAddr: 0x1AD0, symBinAddr: 0x100002900, symSize: 0x20 }
  - { offsetInCU: 0xB7FC, offset: 0xB7FC, size: 0x8, addend: 0x0, symName: __ZNSt3__19allocatorIP8ObserverE8allocateB7v160006Em, symObjAddr: 0x1AF0, symBinAddr: 0x100002920, symSize: 0x50 }
  - { offsetInCU: 0xB82F, offset: 0xB82F, size: 0x8, addend: 0x0, symName: __ZNSt3__117__compressed_pairIPP8ObserverRNS_9allocatorIS2_EEE6secondB7v160006Ev, symObjAddr: 0x1BC0, symBinAddr: 0x1000029F0, symSize: 0x20 }
  - { offsetInCU: 0xB854, offset: 0xB854, size: 0x8, addend: 0x0, symName: __ZNSt3__122__compressed_pair_elemIRNS_9allocatorIP8ObserverEELi1ELb0EE5__getB7v160006Ev, symObjAddr: 0x1BE0, symBinAddr: 0x100002A10, symSize: 0x20 }
  - { offsetInCU: 0xB879, offset: 0xB879, size: 0x8, addend: 0x0, symName: __ZNSt3__117__compressed_pairIPP8ObserverRNS_9allocatorIS2_EEE5firstB7v160006Ev, symObjAddr: 0x1C00, symBinAddr: 0x100002A30, symSize: 0x20 }
  - { offsetInCU: 0xB89E, offset: 0xB89E, size: 0x8, addend: 0x0, symName: __ZNKSt3__16vectorIP8ObserverNS_9allocatorIS2_EEE17__annotate_deleteB7v160006Ev, symObjAddr: 0x1C20, symBinAddr: 0x100002A50, symSize: 0xB0 }
  - { offsetInCU: 0xB8C3, offset: 0xB8C3, size: 0x8, addend: 0x0, symName: __ZNSt3__116reverse_iteratorIPP8ObserverEC1B7v160006ES3_, symObjAddr: 0x1D40, symBinAddr: 0x100002B70, symSize: 0x30 }
  - { offsetInCU: 0xB8FA, offset: 0xB8FA, size: 0x8, addend: 0x0, symName: __ZNKSt3__116reverse_iteratorIPP8ObserverE4baseB7v160006Ev, symObjAddr: 0x1D70, symBinAddr: 0x100002BA0, symSize: 0x20 }
  - { offsetInCU: 0xB91F, offset: 0xB91F, size: 0x8, addend: 0x0, symName: __ZNKSt3__16vectorIP8ObserverNS_9allocatorIS2_EEE14__annotate_newB7v160006Em, symObjAddr: 0x1DD0, symBinAddr: 0x100002C00, symSize: 0xB0 }
  - { offsetInCU: 0xB953, offset: 0xB953, size: 0x8, addend: 0x0, symName: __ZNKSt3__16vectorIP8ObserverNS_9allocatorIS2_EEE31__annotate_contiguous_containerB7v160006EPKvS7_S7_S7_, symObjAddr: 0x1E90, symBinAddr: 0x100002CC0, symSize: 0x20 }
  - { offsetInCU: 0xB9A4, offset: 0xB9A4, size: 0x8, addend: 0x0, symName: __ZNKSt3__16vectorIP8ObserverNS_9allocatorIS2_EEE4dataB7v160006Ev, symObjAddr: 0x1EB0, symBinAddr: 0x100002CE0, symSize: 0x20 }
  - { offsetInCU: 0xB9EC, offset: 0xB9EC, size: 0x8, addend: 0x0, symName: __ZNKSt3__111__move_loopINS_17_ClassicAlgPolicyEEclB7v160006INS_16reverse_iteratorIPP8ObserverEES8_S8_EENS_4pairIT_T1_EESA_T0_SB_, symObjAddr: 0x2310, symBinAddr: 0x100003140, symSize: 0xA0 }
  - { offsetInCU: 0xBA5B, offset: 0xBA5B, size: 0x8, addend: 0x0, symName: __ZNSt3__18_IterOpsINS_17_ClassicAlgPolicyEE11__iter_moveB7v160006IRNS_16reverse_iteratorIPP8ObserverEEEENS_9enable_ifIXsr12is_referenceIDTdeclsr3stdE7declvalIRT_EEEEE5valueEDTclsr3stdE4movedeclsr3stdE7declvalISC_EEEEE4typeEOSB_, symObjAddr: 0x2530, symBinAddr: 0x100003360, symSize: 0x20 }
  - { offsetInCU: 0xBA87, offset: 0xBA87, size: 0x8, addend: 0x0, symName: __ZNKSt3__116reverse_iteratorIPP8ObserverEdeB7v160006Ev, symObjAddr: 0x2550, symBinAddr: 0x100003380, symSize: 0x30 }
  - { offsetInCU: 0xBABA, offset: 0xBABA, size: 0x8, addend: 0x0, symName: __ZNSt3__116reverse_iteratorIPP8ObserverEppB7v160006Ev, symObjAddr: 0x2580, symBinAddr: 0x1000033B0, symSize: 0x20 }
  - { offsetInCU: 0xBADF, offset: 0xBADF, size: 0x8, addend: 0x0, symName: __ZNSt3__18_IterOpsINS_17_ClassicAlgPolicyEE25__validate_iter_referenceB7v160006IRNS_16reverse_iteratorIPP8ObserverEEEEvv, symObjAddr: 0x25A0, symBinAddr: 0x1000033D0, symSize: 0x10 }
  - { offsetInCU: 0xBAFD, offset: 0xBAFD, size: 0x8, addend: 0x0, symName: __ZNSt3__118__unwrap_iter_implINS_16reverse_iteratorIPP8ObserverEELb0EE8__unwrapB7v160006ES5_, symObjAddr: 0x25B0, symBinAddr: 0x1000033E0, symSize: 0x20 }
  - { offsetInCU: 0xBB25, offset: 0xBB25, size: 0x8, addend: 0x0, symName: __ZNSt3__14pairINS_16reverse_iteratorIPP8ObserverEES5_EC1B7v160006IS5_S5_LPv0EEEOT_OT0_, symObjAddr: 0x25D0, symBinAddr: 0x100003400, symSize: 0x30 }
  - { offsetInCU: 0xBB82, offset: 0xBB82, size: 0x8, addend: 0x0, symName: __ZNSt3__14pairINS_16reverse_iteratorIPP8ObserverEES5_EC2B7v160006IS5_S5_LPv0EEEOT_OT0_, symObjAddr: 0x2600, symBinAddr: 0x100003430, symSize: 0x40 }
  - { offsetInCU: 0xBBDF, offset: 0xBBDF, size: 0x8, addend: 0x0, symName: __ZNSt3__118__unwrap_iter_implINS_16reverse_iteratorIPP8ObserverEELb0EE8__rewrapB7v160006ES5_S5_, symObjAddr: 0x2640, symBinAddr: 0x100003470, symSize: 0x30 }
  - { offsetInCU: 0xBC0D, offset: 0xBC0D, size: 0x8, addend: 0x0, symName: __ZNSt3__116reverse_iteratorIPP8ObserverEC2B7v160006ES3_, symObjAddr: 0x2670, symBinAddr: 0x1000034A0, symSize: 0x30 }
  - { offsetInCU: 0xBC44, offset: 0xBC44, size: 0x8, addend: 0x0, symName: __ZNSt3__114__split_bufferIP8ObserverRNS_9allocatorIS2_EEED2Ev, symObjAddr: 0x26A0, symBinAddr: 0x1000034D0, symSize: 0x70 }
  - { offsetInCU: 0xBC6F, offset: 0xBC6F, size: 0x8, addend: 0x0, symName: __ZNSt3__114__split_bufferIP8ObserverRNS_9allocatorIS2_EEE5clearB7v160006Ev, symObjAddr: 0x2710, symBinAddr: 0x100003540, symSize: 0x20 }
  - { offsetInCU: 0xBC94, offset: 0xBC94, size: 0x8, addend: 0x0, symName: __ZNSt3__116allocator_traitsINS_9allocatorIP8ObserverEEE10deallocateB7v160006ERS4_PS3_m, symObjAddr: 0x2730, symBinAddr: 0x100003560, symSize: 0x30 }
  - { offsetInCU: 0xBCD6, offset: 0xBCD6, size: 0x8, addend: 0x0, symName: __ZNKSt3__114__split_bufferIP8ObserverRNS_9allocatorIS2_EEE8capacityB7v160006Ev, symObjAddr: 0x2760, symBinAddr: 0x100003590, symSize: 0x30 }
  - { offsetInCU: 0xBCFB, offset: 0xBCFB, size: 0x8, addend: 0x0, symName: __ZNSt3__114__split_bufferIP8ObserverRNS_9allocatorIS2_EEE17__destruct_at_endB7v160006EPS2_, symObjAddr: 0x2790, symBinAddr: 0x1000035C0, symSize: 0x30 }
  - { offsetInCU: 0xBD2D, offset: 0xBD2D, size: 0x8, addend: 0x0, symName: __ZNSt3__114__split_bufferIP8ObserverRNS_9allocatorIS2_EEE17__destruct_at_endB7v160006EPS2_NS_17integral_constantIbLb0EEE, symObjAddr: 0x27C0, symBinAddr: 0x1000035F0, symSize: 0x80 }
  - { offsetInCU: 0xBD6D, offset: 0xBD6D, size: 0x8, addend: 0x0, symName: __ZNSt3__116allocator_traitsINS_9allocatorIP8ObserverEEE7destroyB7v160006IS3_vEEvRS4_PT_, symObjAddr: 0x2840, symBinAddr: 0x100003670, symSize: 0x30 }
  - { offsetInCU: 0xBDAA, offset: 0xBDAA, size: 0x8, addend: 0x0, symName: __ZNSt3__19allocatorIP8ObserverE7destroyB7v160006EPS2_, symObjAddr: 0x2870, symBinAddr: 0x1000036A0, symSize: 0x10 }
  - { offsetInCU: 0xBDDD, offset: 0xBDDD, size: 0x8, addend: 0x0, symName: __ZNSt3__19allocatorIP8ObserverE10deallocateB7v160006EPS2_m, symObjAddr: 0x2880, symBinAddr: 0x1000036B0, symSize: 0x40 }
  - { offsetInCU: 0xBE1E, offset: 0xBE1E, size: 0x8, addend: 0x0, symName: __ZNKSt3__114__split_bufferIP8ObserverRNS_9allocatorIS2_EEE9__end_capB7v160006Ev, symObjAddr: 0x2930, symBinAddr: 0x100003760, symSize: 0x20 }
  - { offsetInCU: 0xBE43, offset: 0xBE43, size: 0x8, addend: 0x0, symName: __ZNKSt3__117__compressed_pairIPP8ObserverRNS_9allocatorIS2_EEE5firstB7v160006Ev, symObjAddr: 0x2950, symBinAddr: 0x100003780, symSize: 0x20 }
  - { offsetInCU: 0xBE68, offset: 0xBE68, size: 0x8, addend: 0x0, symName: __ZN14WeatherStation15notifyObserversEv, symObjAddr: 0x2970, symBinAddr: 0x1000037A0, symSize: 0xA0 }
  - { offsetInCU: 0xBEDF, offset: 0xBEDF, size: 0x8, addend: 0x0, symName: __ZNSt3__16vectorIP8ObserverNS_9allocatorIS2_EEE5beginB7v160006Ev, symObjAddr: 0x2A10, symBinAddr: 0x100003840, symSize: 0x30 }
  - { offsetInCU: 0xBF05, offset: 0xBF05, size: 0x8, addend: 0x0, symName: __ZNSt3__16vectorIP8ObserverNS_9allocatorIS2_EEE3endB7v160006Ev, symObjAddr: 0x2A40, symBinAddr: 0x100003870, symSize: 0x30 }
  - { offsetInCU: 0xBF2C, offset: 0xBF2C, size: 0x8, addend: 0x0, symName: __ZNKSt3__111__wrap_iterIPP8ObserverEdeB7v160006Ev, symObjAddr: 0x2AA0, symBinAddr: 0x1000038D0, symSize: 0x20 }
  - { offsetInCU: 0xBF51, offset: 0xBF51, size: 0x8, addend: 0x0, symName: __ZNSt3__111__wrap_iterIPP8ObserverEppB7v160006Ev, symObjAddr: 0x2AC0, symBinAddr: 0x1000038F0, symSize: 0x20 }
  - { offsetInCU: 0xBF76, offset: 0xBF76, size: 0x8, addend: 0x0, symName: __ZNSt3__16vectorIP8ObserverNS_9allocatorIS2_EEE11__make_iterB7v160006EPS2_, symObjAddr: 0x2AE0, symBinAddr: 0x100003910, symSize: 0x30 }
  - { offsetInCU: 0xBFAA, offset: 0xBFAA, size: 0x8, addend: 0x0, symName: __ZNSt3__111__wrap_iterIPP8ObserverEC1B7v160006EPKvS3_, symObjAddr: 0x2B10, symBinAddr: 0x100003940, symSize: 0x30 }
  - { offsetInCU: 0xBFEF, offset: 0xBFEF, size: 0x8, addend: 0x0, symName: __ZNSt3__111__wrap_iterIPP8ObserverEC2B7v160006EPKvS3_, symObjAddr: 0x2B40, symBinAddr: 0x100003970, symSize: 0x20 }
  - { offsetInCU: 0xC034, offset: 0xC034, size: 0x8, addend: 0x0, symName: __ZNKSt3__111__wrap_iterIPP8ObserverE4baseB7v160006Ev, symObjAddr: 0x2BA0, symBinAddr: 0x1000039D0, symSize: 0x20 }
  - { offsetInCU: 0xC059, offset: 0xC059, size: 0x8, addend: 0x0, symName: __ZN14WeatherStationD2Ev, symObjAddr: 0x2BC0, symBinAddr: 0x1000039F0, symSize: 0x20 }
  - { offsetInCU: 0xC084, offset: 0xC084, size: 0x8, addend: 0x0, symName: __ZNSt3__16vectorIP8ObserverNS_9allocatorIS2_EEED1B7v160006Ev, symObjAddr: 0x2BE0, symBinAddr: 0x100003A10, symSize: 0x20 }
  - { offsetInCU: 0xC0AD, offset: 0xC0AD, size: 0x8, addend: 0x0, symName: __ZNSt3__16vectorIP8ObserverNS_9allocatorIS2_EEED2B7v160006Ev, symObjAddr: 0x2C00, symBinAddr: 0x100003A30, symSize: 0x40 }
  - { offsetInCU: 0xC0D6, offset: 0xC0D6, size: 0x8, addend: 0x0, symName: __ZNSt3__16vectorIP8ObserverNS_9allocatorIS2_EEE16__destroy_vectorC1ERS5_, symObjAddr: 0x2C40, symBinAddr: 0x100003A70, symSize: 0x30 }
  - { offsetInCU: 0xC10E, offset: 0xC10E, size: 0x8, addend: 0x0, symName: __ZNSt3__16vectorIP8ObserverNS_9allocatorIS2_EEE16__destroy_vectorclB7v160006Ev, symObjAddr: 0x2C70, symBinAddr: 0x100003AA0, symSize: 0x90 }
  - { offsetInCU: 0xC133, offset: 0xC133, size: 0x8, addend: 0x0, symName: __ZNSt3__16vectorIP8ObserverNS_9allocatorIS2_EEE16__destroy_vectorC2ERS5_, symObjAddr: 0x2D00, symBinAddr: 0x100003B30, symSize: 0x20 }
  - { offsetInCU: 0xC16B, offset: 0xC16B, size: 0x8, addend: 0x0, symName: __ZNSt3__16vectorIP8ObserverNS_9allocatorIS2_EEE7__clearB7v160006Ev, symObjAddr: 0x2D30, symBinAddr: 0x100003B60, symSize: 0x20 }
  - { offsetInCU: 0xC190, offset: 0xC190, size: 0x8, addend: 0x0, symName: __ZNSt3__16vectorIP8ObserverNS_9allocatorIS2_EEE22__base_destruct_at_endB7v160006EPS2_, symObjAddr: 0x2D50, symBinAddr: 0x100003B80, symSize: 0x7C }
...
